; Function Attrs: mustprogress uwtable
define void @_ZNK5Ipopt14DenseGenMatrix13LUSolveVectorERNS_11DenseVectorE(ptr noundef nonnull readonly align 8 captures(none) dereferenceable(104) %0, ptr noundef nonnull align 8 dereferenceable(248) %1) local_unnamed_addr #2 align 2 {
  %3 = getelementptr inbounds nuw i8, ptr %0, i64 56
  %4 = load ptr, ptr %3, align 8, !tbaa !6
  %5 = getelementptr inbounds nuw i8, ptr %4, i64 12
  %6 = load i32, ptr %5, align 4, !tbaa !33
  %7 = getelementptr inbounds nuw i8, ptr %0, i64 80
  %8 = load ptr, ptr %7, align 8, !tbaa !34
  %9 = getelementptr inbounds nuw i8, ptr %0, i64 96
  %10 = load ptr, ptr %9, align 8, !tbaa !37
  %11 = getelementptr inbounds nuw i8, ptr %1, i64 232
  %12 = load i8, ptr %11, align 8, !tbaa !102, !range !103, !noundef !104
  %13 = trunc nuw i8 %12 to i1
  br i1 %13, label %14, label %19

14:                                               ; preds = %2
  %15 = getelementptr inbounds nuw i8, ptr %1, i64 233
  %16 = load i8, ptr %15, align 1, !tbaa !105, !range !103, !noundef !104
  %17 = trunc nuw i8 %16 to i1
  br i1 %17, label %18, label %19

18:                                               ; preds = %14
  tail call void @_ZN5Ipopt11DenseVector22set_values_from_scalarEv(ptr noundef nonnull align 8 dereferenceable(248) %1)
  br label %19

19:                                               ; preds = %18, %14, %2
  tail call void @_ZN5Ipopt12TaggedObject13ObjectChangedEv(ptr noundef nonnull align 8 dereferenceable(248) %1)
  store i8 1, ptr %11, align 8, !tbaa !102
  %20 = getelementptr inbounds nuw i8, ptr %1, i64 233
  store i8 0, ptr %20, align 1, !tbaa !105
  %21 = getelementptr inbounds nuw i8, ptr %1, i64 216
  %22 = load ptr, ptr %21, align 8, !tbaa !38
  %23 = icmp eq ptr %22, null
  br i1 %23, label %24, label %_ZN5Ipopt11DenseVector6ValuesEv.exit

24:                                               ; preds = %19
  %25 = getelementptr inbounds nuw i8, ptr %1, i64 208
  %26 = load ptr, ptr %25, align 8, !tbaa !106
  %27 = getelementptr inbounds nuw i8, ptr %26, i64 12
  %28 = load i32, ptr %27, align 4, !tbaa !107
  %29 = icmp sgt i32 %28, 0
  br i1 %29, label %30, label %_ZNK5Ipopt16DenseVectorSpace23AllocateInternalStorageEv.exit.i.i

30:                                               ; preds = %24
  %31 = zext nneg i32 %28 to i64
  %32 = shl nuw nsw i64 %31, 3
  %33 = tail call noalias noundef nonnull ptr @_Znam(i64 noundef %32) #21
  br label %_ZNK5Ipopt16DenseVectorSpace23AllocateInternalStorageEv.exit.i.i

_ZNK5Ipopt16DenseVectorSpace23AllocateInternalStorageEv.exit.i.i: ; preds = %30, %24
  %.0.i.i.i = phi ptr [ %33, %30 ], [ null, %24 ]
  store ptr %.0.i.i.i, ptr %21, align 8, !tbaa !38
  br label %_ZN5Ipopt11DenseVector6ValuesEv.exit

_ZN5Ipopt11DenseVector6ValuesEv.exit:             ; preds = %19, %_ZNK5Ipopt16DenseVectorSpace23AllocateInternalStorageEv.exit.i.i
  %34 = phi ptr [ %22, %19 ], [ %.0.i.i.i, %_ZNK5Ipopt16DenseVectorSpace23AllocateInternalStorageEv.exit.i.i ]
  %35 = getelementptr inbounds nuw i8, ptr %1, i64 56
  %36 = load ptr, ptr %35, align 8, !tbaa !111
  %37 = getelementptr inbounds nuw i8, ptr %36, i64 12
  %38 = load i32, ptr %37, align 4, !tbaa !107
  tail call void @_ZN5Ipopt13IpLapackGetrsEiiPKdiPiPdi(i32 noundef %6, i32 noundef 1, ptr noundef %8, i32 noundef %6, ptr noundef %10, ptr noundef %34, i32 noundef %38)
  ret void
}